#include <math.h>
#include <stdio.h>
#include <stdlib.h>
#include <string.h>

int main(){
int m,i,n,j,t;
int p=2,q=1;
double sum=0.000;
scanf("%d",&m);
for(i=1;i<=m;i++){
scanf("%d",&n);
for(j=1;j<=n;j++){
sum+=p*1.000/q;
t=q;
q=p;
p=q+t;
if(j==n){
	continue;
}
}
printf("%.3lf\n",sum);
sum=0.000;
p=2;
q=1;
}
return 0;
}