; ModuleID = '29/115.c'
source_filename = "29/115.c"
target datalayout = "e-m:e-p270:32:32-p271:32:32-p272:64:64-i64:64-f80:128-n8:16:32:64-S128"
target triple = "x86_64-pc-linux-gnu"

@.str = private unnamed_addr constant [3 x i8] c"%d\00", align 1
@.str.1 = private unnamed_addr constant [7 x i8] c"%.3lf\0A\00", align 1

; Function Attrs: noinline nounwind uwtable
define dso_local i32 @main() #0 {
  %1 = alloca i32, align 4
  %2 = alloca i32, align 4
  %3 = alloca i32, align 4
  %4 = alloca i32, align 4
  %5 = alloca i32, align 4
  %6 = alloca i32, align 4
  %7 = alloca i32, align 4
  %8 = alloca i32, align 4
  %9 = alloca double, align 8
  store i32 0, i32* %1, align 4
  store i32 2, i32* %7, align 4
  store i32 1, i32* %8, align 4
  store double 0.000000e+00, double* %9, align 8
  %10 = call i32 (i8*, ...) @__isoc99_scanf(i8* getelementptr inbounds ([3 x i8], [3 x i8]* @.str, i64 0, i64 0), i32* %2)
  store i32 1, i32* %3, align 4
  br label %11

11:                                               ; preds = %46, %0
  %12 = load i32, i32* %3, align 4
  %13 = load i32, i32* %2, align 4
  %14 = icmp sle i32 %12, %13
  br i1 %14, label %15, label %49

15:                                               ; preds = %11
  %16 = call i32 (i8*, ...) @__isoc99_scanf(i8* getelementptr inbounds ([3 x i8], [3 x i8]* @.str, i64 0, i64 0), i32* %4)
  store i32 1, i32* %5, align 4
  br label %17

17:                                               ; preds = %40, %15
  %18 = load i32, i32* %5, align 4
  %19 = load i32, i32* %4, align 4
  %20 = icmp sle i32 %18, %19
  br i1 %20, label %21, label %43

21:                                               ; preds = %17
  %22 = load i32, i32* %7, align 4
  %23 = sitofp i32 %22 to double
  %24 = fmul double %23, 1.000000e+00
  %25 = load i32, i32* %8, align 4
  %26 = sitofp i32 %25 to double
  %27 = fdiv double %24, %26
  %28 = load double, double* %9, align 8
  %29 = fadd double %28, %27
  store double %29, double* %9, align 8
  %30 = load i32, i32* %8, align 4
  store i32 %30, i32* %6, align 4
  %31 = load i32, i32* %7, align 4
  store i32 %31, i32* %8, align 4
  %32 = load i32, i32* %8, align 4
  %33 = load i32, i32* %6, align 4
  %34 = add nsw i32 %32, %33
  store i32 %34, i32* %7, align 4
  %35 = load i32, i32* %5, align 4
  %36 = load i32, i32* %4, align 4
  %37 = icmp eq i32 %35, %36
  br i1 %37, label %38, label %39

38:                                               ; preds = %21
  br label %40

39:                                               ; preds = %21
  br label %40

40:                                               ; preds = %39, %38
  %41 = load i32, i32* %5, align 4
  %42 = add nsw i32 %41, 1
  store i32 %42, i32* %5, align 4
  br label %17

43:                                               ; preds = %17
  %44 = load double, double* %9, align 8
  %45 = call i32 (i8*, ...) @printf(i8* getelementptr inbounds ([7 x i8], [7 x i8]* @.str.1, i64 0, i64 0), double %44)
  store double 0.000000e+00, double* %9, align 8
  store i32 2, i32* %7, align 4
  store i32 1, i32* %8, align 4
  br label %46

46:                                               ; preds = %43
  %47 = load i32, i32* %3, align 4
  %48 = add nsw i32 %47, 1
  store i32 %48, i32* %3, align 4
  br label %11

49:                                               ; preds = %11
  ret i32 0
}

declare dso_local i32 @__isoc99_scanf(i8*, ...) #1

declare dso_local i32 @printf(i8*, ...) #1


!llvm.module.flags = !{!0}
!llvm.ident = !{!1}

!0 = !{i32 1, !"wchar_size", i32 4}
!1 = !{!"clang version 10.0.0-4ubuntu1 "}
